; ModuleID = '14/1486.c'
source_filename = "14/1486.c"
target datalayout = "e-m:e-p270:32:32-p271:32:32-p272:64:64-i64:64-f80:128-n8:16:32:64-S128"
target triple = "x86_64-pc-linux-gnu"

%struct.stu = type { i32, i32, i32, i32 }

@.str = private unnamed_addr constant [3 x i8] c"%d\00", align 1
@.str.1 = private unnamed_addr constant [9 x i8] c"%d %d %d\00", align 1
@.str.2 = private unnamed_addr constant [7 x i8] c"%d %d\0A\00", align 1

; Function Attrs: noinline nounwind uwtable
define dso_local i32 @main() #0 {
  %1 = alloca i32, align 4
  %2 = alloca [100000 x %struct.stu], align 16
  %3 = alloca i32, align 4
  %4 = alloca i32, align 4
  %5 = alloca i32, align 4
  %6 = alloca i32, align 4
  %7 = alloca i32, align 4
  store i32 0, i32* %1, align 4
  %8 = call i32 (i8*, ...) @__isoc99_scanf(i8* getelementptr inbounds ([3 x i8], [3 x i8]* @.str, i64 0, i64 0), i32* %3)
  store i32 0, i32* %4, align 4
  br label %9

9:                                                ; preds = %42, %0
  %10 = load i32, i32* %4, align 4
  %11 = load i32, i32* %3, align 4
  %12 = icmp slt i32 %10, %11
  br i1 %12, label %13, label %45

13:                                               ; preds = %9
  %14 = load i32, i32* %4, align 4
  %15 = sext i32 %14 to i64
  %16 = getelementptr inbounds [100000 x %struct.stu], [100000 x %struct.stu]* %2, i64 0, i64 %15
  %17 = getelementptr inbounds %struct.stu, %struct.stu* %16, i32 0, i32 0
  %18 = load i32, i32* %4, align 4
  %19 = sext i32 %18 to i64
  %20 = getelementptr inbounds [100000 x %struct.stu], [100000 x %struct.stu]* %2, i64 0, i64 %19
  %21 = getelementptr inbounds %struct.stu, %struct.stu* %20, i32 0, i32 1
  %22 = load i32, i32* %4, align 4
  %23 = sext i32 %22 to i64
  %24 = getelementptr inbounds [100000 x %struct.stu], [100000 x %struct.stu]* %2, i64 0, i64 %23
  %25 = getelementptr inbounds %struct.stu, %struct.stu* %24, i32 0, i32 2
  %26 = call i32 (i8*, ...) @__isoc99_scanf(i8* getelementptr inbounds ([9 x i8], [9 x i8]* @.str.1, i64 0, i64 0), i32* %17, i32* %21, i32* %25)
  %27 = load i32, i32* %4, align 4
  %28 = sext i32 %27 to i64
  %29 = getelementptr inbounds [100000 x %struct.stu], [100000 x %struct.stu]* %2, i64 0, i64 %28
  %30 = getelementptr inbounds %struct.stu, %struct.stu* %29, i32 0, i32 1
  %31 = load i32, i32* %30, align 4
  %32 = load i32, i32* %4, align 4
  %33 = sext i32 %32 to i64
  %34 = getelementptr inbounds [100000 x %struct.stu], [100000 x %struct.stu]* %2, i64 0, i64 %33
  %35 = getelementptr inbounds %struct.stu, %struct.stu* %34, i32 0, i32 2
  %36 = load i32, i32* %35, align 8
  %37 = add nsw i32 %31, %36
  %38 = load i32, i32* %4, align 4
  %39 = sext i32 %38 to i64
  %40 = getelementptr inbounds [100000 x %struct.stu], [100000 x %struct.stu]* %2, i64 0, i64 %39
  %41 = getelementptr inbounds %struct.stu, %struct.stu* %40, i32 0, i32 3
  store i32 %37, i32* %41, align 4
  br label %42

42:                                               ; preds = %13
  %43 = load i32, i32* %4, align 4
  %44 = add nsw i32 %43, 1
  store i32 %44, i32* %4, align 4
  br label %9

45:                                               ; preds = %9
  store i32 0, i32* %4, align 4
  br label %46

46:                                               ; preds = %92, %45
  %47 = load i32, i32* %4, align 4
  %48 = icmp slt i32 %47, 3
  br i1 %48, label %49, label %95

49:                                               ; preds = %46
  %50 = getelementptr inbounds [100000 x %struct.stu], [100000 x %struct.stu]* %2, i64 0, i64 0
  %51 = getelementptr inbounds %struct.stu, %struct.stu* %50, i32 0, i32 3
  %52 = load i32, i32* %51, align 4
  store i32 %52, i32* %5, align 4
  store i32 0, i32* %6, align 4
  store i32 1, i32* %7, align 4
  br label %53

53:                                               ; preds = %73, %49
  %54 = load i32, i32* %7, align 4
  %55 = load i32, i32* %3, align 4
  %56 = icmp slt i32 %54, %55
  br i1 %56, label %57, label %76

57:                                               ; preds = %53
  %58 = load i32, i32* %7, align 4
  %59 = sext i32 %58 to i64
  %60 = getelementptr inbounds [100000 x %struct.stu], [100000 x %struct.stu]* %2, i64 0, i64 %59
  %61 = getelementptr inbounds %struct.stu, %struct.stu* %60, i32 0, i32 3
  %62 = load i32, i32* %61, align 4
  %63 = load i32, i32* %5, align 4
  %64 = icmp sgt i32 %62, %63
  br i1 %64, label %65, label %72

65:                                               ; preds = %57
  %66 = load i32, i32* %7, align 4
  %67 = sext i32 %66 to i64
  %68 = getelementptr inbounds [100000 x %struct.stu], [100000 x %struct.stu]* %2, i64 0, i64 %67
  %69 = getelementptr inbounds %struct.stu, %struct.stu* %68, i32 0, i32 3
  %70 = load i32, i32* %69, align 4
  store i32 %70, i32* %5, align 4
  %71 = load i32, i32* %7, align 4
  store i32 %71, i32* %6, align 4
  br label %72

72:                                               ; preds = %65, %57
  br label %73

73:                                               ; preds = %72
  %74 = load i32, i32* %7, align 4
  %75 = add nsw i32 %74, 1
  store i32 %75, i32* %7, align 4
  br label %53

76:                                               ; preds = %53
  %77 = load i32, i32* %6, align 4
  %78 = sext i32 %77 to i64
  %79 = getelementptr inbounds [100000 x %struct.stu], [100000 x %struct.stu]* %2, i64 0, i64 %78
  %80 = getelementptr inbounds %struct.stu, %struct.stu* %79, i32 0, i32 0
  %81 = load i32, i32* %80, align 16
  %82 = load i32, i32* %6, align 4
  %83 = sext i32 %82 to i64
  %84 = getelementptr inbounds [100000 x %struct.stu], [100000 x %struct.stu]* %2, i64 0, i64 %83
  %85 = getelementptr inbounds %struct.stu, %struct.stu* %84, i32 0, i32 3
  %86 = load i32, i32* %85, align 4
  %87 = call i32 (i8*, ...) @printf(i8* getelementptr inbounds ([7 x i8], [7 x i8]* @.str.2, i64 0, i64 0), i32 %81, i32 %86)
  %88 = load i32, i32* %6, align 4
  %89 = sext i32 %88 to i64
  %90 = getelementptr inbounds [100000 x %struct.stu], [100000 x %struct.stu]* %2, i64 0, i64 %89
  %91 = getelementptr inbounds %struct.stu, %struct.stu* %90, i32 0, i32 3
  store i32 0, i32* %91, align 4
  br label %92

92:                                               ; preds = %76
  %93 = load i32, i32* %4, align 4
  %94 = add nsw i32 %93, 1
  store i32 %94, i32* %4, align 4
  br label %46

95:                                               ; preds = %46
  %96 = load i32, i32* %1, align 4
  ret i32 %96
}

declare dso_local i32 @__isoc99_scanf(i8*, ...) #1

declare dso_local i32 @printf(i8*, ...) #1


!llvm.module.flags = !{!0}
!llvm.ident = !{!1}

!0 = !{i32 1, !"wchar_size", i32 4}
!1 = !{!"clang version 10.0.0-4ubuntu1 "}
